; Function Attrs: mustprogress nounwind uwtable
define void @_ZN32pxrInternal_v0_24__pxrReserved__20HdMeshEdgeIndexTableD2Ev(ptr nocapture noundef nonnull readonly align 8 dereferenceable(48) %0) unnamed_addr #6 align 2 personality ptr @__gxx_personality_v0 {
  %2 = getelementptr inbounds nuw i8, ptr %0, i64 24
  %3 = load ptr, ptr %2, align 8
  %.not.i.i.i = icmp eq ptr %3, null
  br i1 %.not.i.i.i, label %_ZNSt6vectorIN32pxrInternal_v0_24__pxrReserved__20HdMeshEdgeIndexTable5_EdgeESaIS2_EED2Ev.exit, label %4

4:                                                ; preds = %1
  %5 = getelementptr inbounds i8, ptr %0, i64 40
  %6 = load ptr, ptr %5, align 8
  %7 = ptrtoint ptr %6 to i64
  %8 = ptrtoint ptr %3 to i64
  %9 = sub i64 %7, %8
  tail call void @_ZdlPvm(ptr noundef nonnull %3, i64 noundef %9) #21
  br label %_ZNSt6vectorIN32pxrInternal_v0_24__pxrReserved__20HdMeshEdgeIndexTable5_EdgeESaIS2_EED2Ev.exit

_ZNSt6vectorIN32pxrInternal_v0_24__pxrReserved__20HdMeshEdgeIndexTable5_EdgeESaIS2_EED2Ev.exit: ; preds = %1, %4
  %10 = load ptr, ptr %0, align 8
  %.not.i.i.i1 = icmp eq ptr %10, null
  br i1 %.not.i.i.i1, label %_ZNSt6vectorIN32pxrInternal_v0_24__pxrReserved__7GfVec2iESaIS1_EED2Ev.exit, label %11

11:                                               ; preds = %_ZNSt6vectorIN32pxrInternal_v0_24__pxrReserved__20HdMeshEdgeIndexTable5_EdgeESaIS2_EED2Ev.exit
  %12 = getelementptr inbounds nuw i8, ptr %0, i64 16
  %13 = load ptr, ptr %12, align 8
  %14 = ptrtoint ptr %13 to i64
  %15 = ptrtoint ptr %10 to i64
  %16 = sub i64 %14, %15
  tail call void @_ZdlPvm(ptr noundef nonnull %10, i64 noundef %16) #21
  br label %_ZNSt6vectorIN32pxrInternal_v0_24__pxrReserved__7GfVec2iESaIS1_EED2Ev.exit

_ZNSt6vectorIN32pxrInternal_v0_24__pxrReserved__7GfVec2iESaIS1_EED2Ev.exit: ; preds = %_ZNSt6vectorIN32pxrInternal_v0_24__pxrReserved__20HdMeshEdgeIndexTable5_EdgeESaIS2_EED2Ev.exit, %11
  ret void
}